; Function Attrs: mustprogress nofree norecurse nosync nounwind willreturn memory(argmem: write) uwtable
define hidden void @_ZN5o3dgc18Adaptive_Bit_Model5resetEv(ptr noundef nonnull writeonly align 4 captures(none) dereferenceable(20) initializes((0, 20)) %0) local_unnamed_addr #4 align 2 {
  %2 = getelementptr inbounds nuw i8, ptr %0, i64 12
  store i32 1, ptr %2, align 4
  %3 = getelementptr inbounds nuw i8, ptr %0, i64 16
  store i32 2, ptr %3, align 4
  %4 = getelementptr inbounds nuw i8, ptr %0, i64 8
  store i32 4096, ptr %4, align 4
  %5 = getelementptr inbounds nuw i8, ptr %0, i64 4
  store i32 4, ptr %5, align 4
  store i32 4, ptr %0, align 4
  ret void
}